; Function Attrs: mustprogress uwtable
define dso_local void @_ZN3net21QuicSentPacketManager16SetSendAlgorithmEPNS_22SendAlgorithmInterfaceE(ptr noundef nonnull align 8 dereferenceable(776) %this, ptr noundef %send_algorithm) local_unnamed_addr #0 align 2 {
entry:
  %send_algorithm_ = getelementptr inbounds i8, ptr %this, i64 488
  %0 = load ptr, ptr %send_algorithm_, align 8
  store ptr %send_algorithm, ptr %send_algorithm_, align 8
  %tobool.not.i.i = icmp eq ptr %0, null
  br i1 %tobool.not.i.i, label %_ZNSt10unique_ptrIN3net22SendAlgorithmInterfaceESt14default_deleteIS1_EE5resetEPS1_.exit, label %_ZNKSt14default_deleteIN3net22SendAlgorithmInterfaceEEclEPS1_.exit.i.i

_ZNKSt14default_deleteIN3net22SendAlgorithmInterfaceEEclEPS1_.exit.i.i: ; preds = %entry
  %vtable.i.i.i = load ptr, ptr %0, align 8
  %vfn.i.i.i = getelementptr inbounds i8, ptr %vtable.i.i.i, i64 8
  %1 = load ptr, ptr %vfn.i.i.i, align 8
  tail call void %1(ptr noundef nonnull align 8 dereferenceable(8) %0) #16
  br label %_ZNSt10unique_ptrIN3net22SendAlgorithmInterfaceESt14default_deleteIS1_EE5resetEPS1_.exit

_ZNSt10unique_ptrIN3net22SendAlgorithmInterfaceESt14default_deleteIS1_EE5resetEPS1_.exit: ; preds = %entry, %_ZNKSt14default_deleteIN3net22SendAlgorithmInterfaceEEclEPS1_.exit.i.i
  %pacing_sender_ = getelementptr inbounds i8, ptr %this, i64 680
  tail call void @_ZN3net12PacingSender10set_senderEPNS_22SendAlgorithmInterfaceE(ptr noundef nonnull align 8 dereferenceable(41) %pacing_sender_, ptr noundef %send_algorithm)
  ret void
}